(S'ssl-data_2017-04-29-13-41-12_18'
p1
F232.41660813799999
F241.550752015
(lp2
((F1.7089027175845781
F-0.69210669921621226
F-0.60654471196832671
tp3
S'data/segments_flac/S3003C/AMI-S3003C-R1-H01_m5011-AM_0078460_0079289.flac'
p4
F0.64056250000000003
F8.9306249999999991
F0.96723789112989822
S'm5011-AM'
tp5
atp6
.