(S'ssl-data_2017-04-29-13-41-12_8'
p1
F100.432728095
F107.921216101
(lp2
((F0.64974937365189345
F1.7204050935989672
F0.20986277382561769
tp3
S'data/segments_flac/N2002B/AMI-N2002B-R1-H03_m0073-AM_0149962_0150547.flac'
p4
F1.4350000000000001
F7.2850625000000004
F1.0339721068465562
S'm0073-AM'
tp5
a((F1.3856385298080345
F1.2163395797118519
F-0.097050839162539093
tp6
S'data/segments_flac/N2002B/AMI-N2002B-R1-H03_m0073-AM_0012461_0013060.flac'
p7
F0.80712499999999998
F6.7971874999999997
F1.0261593349132352
S'm0073-AM'
tp8
atp9
.