(S'ssl-data_2017-04-29-13-41-12_16'
p1
F204.04006699999999
F219.15931305399999
(lp2
((F1.7143458569223708
F-0.6032954578182057
F-0.54253917999163248
tp3
S'data/segments_flac/S2004C/AMI-S2004C-R1-H02_m0014-AM_0123536_0124959.flac'
p4
F0.82699999999999996
F15.057062500000001
F1.0629157946145971
S'm0014-AM'
tp5
atp6
.