(S'ssl-data_2017-04-29-13-41-12_7'
p1
F89.908361001000003
F100.19675907600001
(lp2
((F1.3840948748368076
F1.2197144353263814
F-0.099448436585110933
tp3
S'data/segments_flac/N2002B/AMI-N2002B-R1-H03_m0073-AM_0080094_0081034.flac'
p4
F0.82762500000000006
F10.2276875
F0.99054489948542035
S'm0073-AM'
tp5
atp6
.