(S'ssl-data_2017-04-29-13-41-12_6'
p1
F81.411787075999996
F89.670849175000001
(lp2
((F0.64720340425540734
F1.7214262953305981
F0.21000613996314765
tp3
S'data/segments_flac/N2002B/AMI-N2002B-R1-H00_f3070-AM_0127714_0128456.flac'
p4
F0.63549999999999995
F8.0555625000000006
F0.9761981368044661
S'f3070-AM'
tp5
atp6
.