(S'ssl-data_2017-04-29-13-41-12_23'
p1
F297.35256104000001
F313.83764705099998
(lp2
((F1.4819747307986879
F-1.1473910548426836
F-0.41393083979852185
tp3
S'data/segments_flac/S1009A/AMI-S1009A-R1-H00_f1088-AM_0020371_0021822.flac'
p4
F1.7711250000000001
F16.281187500000001
F1.0625882597141709
S'f1088-AM'
tp5
a((F0.74984234187699239
F-1.6875436600756399
F-0.16487625456109534
tp6
S'data/segments_flac/S1009A/AMI-S1009A-R1-H00_f1088-AM_0075136_0075801.flac'
p7
F0.81518749999999995
F7.4652499999999993
F1.0293558970087493
S'f1088-AM'
tp8
atp9
.