(S'ssl-data_2017-04-29-13-41-12_17'
p1
F219.37994102900001
F230.303983063
(lp2
((F1.8421658806945804
F0.32739718222239139
F-0.44107252646740214
tp3
S'data/segments_flac/S2004C/AMI-S2004C-R1-H03_f0016-AM_0027018_0027789.flac'
p4
F1.6445000000000001
F9.3545625000000001
F1.0505846733409376
S'f0016-AM'
tp5
a((F1.7143224151368575
F-0.60206261721506693
F-0.53890599630158431
tp6
S'data/segments_flac/S2004C/AMI-S2004C-R1-H02_m0014-AM_0087478_0088377.flac'
p7
F1.8627499999999999
F10.852812500000001
F1.0452471250006559
S'm0014-AM'
tp8
atp9
.