(S'ssl-data_2017-04-29-13-41-12_14'
p1
F177.19509105200001
F185.633039088
(lp2
((F1.6363993535175725
F0.93007900428353274
F-0.093058755561534978
tp3
S'data/segments_flac/S1009B/AMI-S1009B-R1-H00_f1088-AM_0172291_0172968.flac'
p4
F1.464375
F8.2344375000000003
F1.0098988725010725
S'f1088-AM'
tp5
a((F1.8445572200219278
F0.033108899902204225
F-0.29781664364995397
tp6
S'data/segments_flac/S1009B/AMI-S1009B-R1-H00_f1088-AM_0183531_0184133.flac'
p7
F0.81368750000000001
F6.8337500000000002
F0.90000000000000002
S'f1088-AM'
tp8
atp9
.