(S'ssl-data_2017-04-29-13-41-12_4'
p1
F54.914691968
F70.232899040999996
(lp2
((F1.0756836042633227
F1.4921715978001941
F-0.030045320089385097
tp3
S'data/segments_flac/S2004A/AMI-S2004A-R1-H01_f0013-AM_0017029_0018472.flac'
p4
F0.82668750000000002
F15.25675
F0.94156257870855642
S'f0013-AM'
tp5
atp6
.