(S'ssl-data_2017-04-29-13-41-12_20'
p1
F248.38186912
F264.37672004199999
(lp2
((F1.708990545052167
F-0.69119009022794875
F-0.6041496846679526
tp3
S'data/segments_flac/S3003C/AMI-S3003C-R1-H02_m5001-AM_0083674_0085100.flac'
p4
F1.53125
F15.7913125
F1.0571042657743404
S'm5001-AM'
tp5
a((F1.1483155484551766
F-1.4296112087013686
F-0.4304008479542788
tp6
S'data/segments_flac/S3003C/AMI-S3003C-R1-H02_m5001-AM_0085414_0086161.flac'
p7
F0.80243750000000003
F8.2725000000000009
F1.0282683762622595
S'm5001-AM'
tp8
atp9
.