(S'ssl-data_2017-04-29-13-41-12_1'
p1
F21.604825062
F31.356864066
(lp2
((F0.25073082077417252
F1.8003536054149709
F0.12152949311169403
tp3
S'data/segments_flac/S2004C/AMI-S2004C-R1-H02_m0014-AM_0104800_0105659.flac'
p4
F1.1009374999999999
F9.6910000000000007
F0.96371637556959611
S'm0014-AM'
tp5
atp6
.