(S'ssl-data_2017-04-29-13-41-12_12'
p1
F151.664222045
F160.64520415699999
(lp2
((F1.6374240275751808
F0.93056655457215021
F-0.096126494893429615
tp3
S'data/segments_flac/S1009B/AMI-S1009B-R1-H03_f4089-AM_0087555_0088268.flac'
p4
F1.6472500000000001
F8.7773125000000007
F1.0775281034364912
S'f4089-AM'
tp5
atp6
.