(S'ssl-data_2017-04-29-13-41-12_15'
p1
F187.44086007600001
F203.81738719399999
(lp2
((F1.84222079756388
F0.32735877002782998
F-0.44243487128390346
tp3
S'data/segments_flac/S2004C/AMI-S2004C-R1-H03_f0016-AM_0029088_0030641.flac'
p4
F0.64293750000000005
F16.172999999999998
F0.95474605047788563
S'f0016-AM'
tp5
atp6
.