(S'ssl-data_2017-04-29-13-41-12_5'
p1
F70.444684070999998
F79.737013192000006
(lp2
((F0.24634578311862609
F1.8013650511235728
F0.29626102600414417
tp3
S'data/segments_flac/S2004A/AMI-S2004A-R1-H00_m3015-AM_0032400_0033245.flac'
p4
F0.638625
F9.0886874999999989
F0.95988023046079662
S'm3015-AM'
tp5
a((F1.0756850765156032
F1.4920394799937877
F-0.029813943518140706
tp6
S'data/segments_flac/S2004A/AMI-S2004A-R1-H01_f0013-AM_0016229_0016788.flac'
p7
F1.0598125
F6.6498749999999998
F1.0081637392225529
S'f0013-AM'
tp8
atp9
.