(S'ssl-data_2017-04-29-13-41-12_11'
p1
F137.59528712700001
F149.747119994
(lp2
((F1.119771754733266
F1.4913213563458587
F0.072350250042453768
tp3
S'data/segments_flac/N2002B/AMI-N2002B-R1-H03_m0073-AM_0080094_0081034.flac'
p4
F2.5482499999999999
F11.9483125
F0.98898351490562542
S'm0073-AM'
tp5
a((F1.672902290799692
F0.78303644079859425
F-0.21433764079878803
tp6
S'data/segments_flac/N2002B/AMI-N2002B-R1-H03_m0073-AM_0012461_0013060.flac'
p7
F0.79949999999999999
F6.7895624999999997
F1.0116259207026381
S'm0073-AM'
tp8
atp9
.