(S'ssl-data_2017-04-29-13-41-12_9'
p1
F109.644683165
F130.39123115000001
(lp2
((F1.1198015090996685
F1.4914384574057964
F0.072236807878487297
tp3
S'data/segments_flac/N2002B/AMI-N2002B-R1-H03_m0073-AM_0099217_0101207.flac'
p4
F0.64356250000000004
F20.543625000000002
F1.0021178538026816
S'm0073-AM'
tp5
atp6
.