(S'ssl-data_2017-04-29-13-41-12_21'
p1
F266.12219719400002
F279.758694977
(lp2
((F1.481293333982677
F-1.148902920860174
F-0.41898665456375528
tp3
S'data/segments_flac/S1009A/AMI-S1009A-R1-H00_f1088-AM_0043654_0044933.flac'
p4
F0.64293750000000005
F13.433
F1.0674644464209848
S'f1088-AM'
tp5
atp6
.