(S'ssl-data_2017-04-29-13-41-12_3'
p1
F46.644043011000001
F54.677732081000002
(lp2
((F0.24771962862433428
F1.8013314024674687
F0.2960909873118438
tp3
S'data/segments_flac/S2004A/AMI-S2004A-R1-H01_f0013-AM_0097282_0098001.flac'
p4
F0.64000000000000001
F7.8300624999999995
F1.0370961062826214
S'f0013-AM'
tp5
atp6
.