(S'ssl-data_2017-04-29-13-41-12_19'
p1
F241.821048064
F248.14073214000001
(lp2
((F1.1481540845253293
F-1.4302295593299732
F-0.43218437474552263
tp3
S'data/segments_flac/S3003C/AMI-S3003C-R1-H02_m5001-AM_0089083_0089625.flac'
p4
F0.82968750000000002
F6.2497500000000006
F1.0729508549602156
S'm5001-AM'
tp5
atp6
.