(S'ssl-data_2017-04-29-13-41-12_22'
p1
F279.97848801100002
F297.12969002199998
(lp2
((F0.74942060732794746
F-1.6887338189277012
F-0.16731587632558131
tp3
S'data/segments_flac/S1009A/AMI-S1009A-R1-H02_f4084-AM_0009122_0010748.flac'
p4
F0.83150000000000002
F17.091562499999998
F1.0021376950220418
S'f4084-AM'
tp5
atp6
.