(S'ssl-data_2017-04-29-13-41-12_0'
p1
F5.2846751640000003
F21.389395089000001
(lp2
((F-0.51064805924261525
F1.6050751262081504
F0.64089980546652769
tp3
S'data/segments_flac/S2004C/AMI-S2004C-R1-H02_m0014-AM_0120432_0121959.flac'
p4
F0.63118750000000001
F15.901249999999999
F0.99410379689976014
S'm0014-AM'
tp5
atp6
.