(S'ssl-data_2017-04-29-13-41-12_13'
p1
F160.88196711000001
F176.95917305399999
(lp2
((F1.8441205560632221
F0.032788541483125766
F-0.29507826856992658
tp3
S'data/segments_flac/S1009B/AMI-S1009B-R1-H01_f4087-AM_0145622_0147141.flac'
p4
F0.82568750000000002
F16.015750000000001
F0.91005163307807824
S'f4087-AM'
tp5
atp6
.