(S'ssl-data_2017-04-29-13-41-12_10'
p1
F130.62799815599999
F137.37529000699999
(lp2
((F1.6729121919595187
F0.78303644079859369
F-0.21177142545014471
tp3
S'data/segments_flac/N2002B/AMI-N2002B-R1-H03_m0073-AM_0149962_0150547.flac'
p4
F0.82599999999999996
F6.6760624999999996
F0.9478179124849746
S'm0073-AM'
tp5
atp6
.