(S'ssl-data_2017-04-29-13-41-12_2'
p1
F31.593714994999999
F44.569448084000001
(lp2
((F-0.51128646961440394
F1.6048093750778496
F0.64128821683161108
tp3
S'data/segments_flac/S2004C/AMI-S2004C-R1-H03_f0016-AM_0142891_0144104.flac'
p4
F0.64218750000000002
F12.77225
F1.0935479835364146
S'f0016-AM'
tp5
a((F0.25105579208358408
F1.80035360541497
F0.12128092045300842
tp6
S'data/segments_flac/S2004C/AMI-S2004C-R1-H01_f0013-AM_0179193_0179837.flac'
p7
F2.4047499999999999
F8.8448124999999997
F1.004718487470353
S'f0013-AM'
tp8
atp9
.